	.file	"bench.cc"
	.text
.Ltext0:
	.cfi_sections	.debug_frame
	.section .rdata,"dr"
_ZStL19piecewise_construct:
	.space 1
.lcomm _ZStL8__ioinit,1,1
_ZStL13allocator_arg:
	.space 1
_ZStL6ignore:
	.space 1
	.section	.text$_ZSt4setwi,"x"
	.linkonce discard
	.globl	_ZSt4setwi
	.def	_ZSt4setwi;	.scl	2;	.type	32;	.endef
	.seh_proc	_ZSt4setwi
_ZSt4setwi:
.LFB2231:
	.file 1 "C:/msys64/mingw64/include/c++/10.2.0/iomanip"
	.loc 1 226 3
	.cfi_startproc
	pushq	%rbp
	.seh_pushreg	%rbp
	.cfi_def_cfa_offset 16
	.cfi_offset 6, -16
	movq	%rsp, %rbp
	.seh_setframe	%rbp, 0
	.cfi_def_cfa_register 6
	.seh_endprologue
	movl	%ecx, 16(%rbp)
	.loc 1 226 18
	movl	16(%rbp), %eax
	.loc 1 226 21
	popq	%rbp
	.cfi_restore 6
	.cfi_def_cfa 7, 8
	ret
	.cfi_endproc
.LFE2231:
	.seh_endproc
	.text
	.globl	_Z2b1j
	.def	_Z2b1j;	.scl	2;	.type	32;	.endef
	.seh_proc	_Z2b1j
_Z2b1j:
.LFB2460:
	.file 2 "bench.cc"
	.loc 2 32 25
	.cfi_startproc
	pushq	%rbp
	.seh_pushreg	%rbp
	.cfi_def_cfa_offset 16
	.cfi_offset 6, -16
	movq	%rsp, %rbp
	.seh_setframe	%rbp, 0
	.cfi_def_cfa_register 6
	subq	$48, %rsp
	.seh_stackalloc	48
	.seh_endprologue
	movl	%ecx, 16(%rbp)
.LBB2:
	.loc 2 33 11
	movl	$0, -4(%rbp)
.L5:
	.loc 2 33 18 discriminator 3
	movl	-4(%rbp), %eax
	.loc 2 33 20 discriminator 3
	cmpl	%eax, 16(%rbp)
	jbe	.L4
	.loc 2 34 4 discriminator 2
	call	_Z1fv
	.loc 2 33 2 discriminator 2
	addl	$1, -4(%rbp)
	jmp	.L5
.L4:
.LBE2:
	.loc 2 35 9
	movl	$0, %eax
	.loc 2 36 1
	addq	$48, %rsp
	popq	%rbp
	.cfi_restore 6
	.cfi_def_cfa 7, 8
	ret
	.cfi_endproc
.LFE2460:
	.seh_endproc
	.globl	_Z3b1bj
	.def	_Z3b1bj;	.scl	2;	.type	32;	.endef
	.seh_proc	_Z3b1bj
_Z3b1bj:
.LFB2461:
	.loc 2 39 26
	.cfi_startproc
	pushq	%rbp
	.seh_pushreg	%rbp
	.cfi_def_cfa_offset 16
	.cfi_offset 6, -16
	movq	%rsp, %rbp
	.seh_setframe	%rbp, 0
	.cfi_def_cfa_register 6
	subq	$64, %rsp
	.seh_stackalloc	64
	.seh_endprologue
	movl	%ecx, 16(%rbp)
.LBB3:
	.loc 2 40 11
	movl	$0, -4(%rbp)
.L9:
	.loc 2 40 18 discriminator 3
	movl	-4(%rbp), %eax
	.loc 2 40 20 discriminator 3
	cmpl	%eax, 16(%rbp)
	jbe	.L8
	.loc 2 41 4 discriminator 2
	movl	-4(%rbp), %eax
	movl	-4(%rbp), %edx
	movl	%edx, 32(%rsp)
	movl	$7, %r9d
	movl	$5, %r8d
	movl	$3, %edx
	movl	%eax, %ecx
	call	_Z1fiiiii
	.loc 2 40 2 discriminator 2
	addl	$1, -4(%rbp)
	jmp	.L9
.L8:
.LBE3:
	.loc 2 42 9
	movl	$0, %eax
	.loc 2 43 1
	addq	$64, %rsp
	popq	%rbp
	.cfi_restore 6
	.cfi_def_cfa 7, 8
	ret
	.cfi_endproc
.LFE2461:
	.seh_endproc
	.globl	_Z2b2j
	.def	_Z2b2j;	.scl	2;	.type	32;	.endef
	.seh_proc	_Z2b2j
_Z2b2j:
.LFB2462:
	.loc 2 47 25
	.cfi_startproc
	pushq	%rbp
	.seh_pushreg	%rbp
	.cfi_def_cfa_offset 16
	.cfi_offset 6, -16
	movq	%rsp, %rbp
	.seh_setframe	%rbp, 0
	.cfi_def_cfa_register 6
	subq	$32, %rsp
	.seh_stackalloc	32
	.seh_endprologue
	movl	%ecx, 16(%rbp)
.L13:
	.loc 2 48 11 discriminator 2
	cmpl	$0, 16(%rbp)
	je	.L12
	.loc 2 49 4 discriminator 1
	call	_Z1fv
	.loc 2 48 2 discriminator 1
	subl	$1, 16(%rbp)
	jmp	.L13
.L12:
	.loc 2 51 9
	movl	$0, %eax
	.loc 2 52 1
	addq	$32, %rsp
	popq	%rbp
	.cfi_restore 6
	.cfi_def_cfa 7, 8
	ret
	.cfi_endproc
.LFE2462:
	.seh_endproc
	.globl	_Z2b3j
	.def	_Z2b3j;	.scl	2;	.type	32;	.endef
	.seh_proc	_Z2b3j
_Z2b3j:
.LFB2463:
	.loc 2 55 25
	.cfi_startproc
	pushq	%rbp
	.seh_pushreg	%rbp
	.cfi_def_cfa_offset 16
	.cfi_offset 6, -16
	movq	%rsp, %rbp
	.seh_setframe	%rbp, 0
	.cfi_def_cfa_register 6
	subq	$16, %rsp
	.seh_stackalloc	16
	.seh_endprologue
	movl	%ecx, 16(%rbp)
	.loc 2 56 11
	movl	$0, -4(%rbp)
.LBB4:
	.loc 2 57 11
	movl	$0, -8(%rbp)
.L17:
	.loc 2 57 18 discriminator 3
	movl	-8(%rbp), %eax
	.loc 2 57 20 discriminator 3
	cmpl	%eax, 16(%rbp)
	jbe	.L16
	.loc 2 58 10 discriminator 2
	movl	-8(%rbp), %eax
	.loc 2 58 7 discriminator 2
	addl	%eax, -4(%rbp)
	.loc 2 57 2 discriminator 2
	addl	$1, -8(%rbp)
	jmp	.L17
.L16:
.LBE4:
	.loc 2 59 9
	movl	-4(%rbp), %eax
	.loc 2 60 1
	addq	$16, %rsp
	popq	%rbp
	.cfi_restore 6
	.cfi_def_cfa 7, 8
	ret
	.cfi_endproc
.LFE2463:
	.seh_endproc
	.globl	_Z3b3by
	.def	_Z3b3by;	.scl	2;	.type	32;	.endef
	.seh_proc	_Z3b3by
_Z3b3by:
.LFB2464:
	.loc 2 63 26
	.cfi_startproc
	pushq	%rbp
	.seh_pushreg	%rbp
	.cfi_def_cfa_offset 16
	.cfi_offset 6, -16
	movq	%rsp, %rbp
	.seh_setframe	%rbp, 0
	.cfi_def_cfa_register 6
	subq	$16, %rsp
	.seh_stackalloc	16
	.seh_endprologue
	movq	%rcx, 16(%rbp)
	.loc 2 64 11
	movq	$0, -8(%rbp)
.LBB5:
	.loc 2 65 11
	movl	$0, -12(%rbp)
.L21:
	.loc 2 65 18 discriminator 3
	movl	-12(%rbp), %eax
	cltq
	.loc 2 65 20 discriminator 3
	cmpq	%rax, 16(%rbp)
	jbe	.L20
	.loc 2 66 10 discriminator 2
	movl	-12(%rbp), %eax
	cltq
	.loc 2 66 7 discriminator 2
	addq	%rax, -8(%rbp)
	.loc 2 65 2 discriminator 2
	addl	$1, -12(%rbp)
	jmp	.L21
.L20:
.LBE5:
	.loc 2 67 9
	movq	-8(%rbp), %rax
	.loc 2 68 1
	addq	$16, %rsp
	popq	%rbp
	.cfi_restore 6
	.cfi_def_cfa 7, 8
	ret
	.cfi_endproc
.LFE2464:
	.seh_endproc
	.globl	_Z2b4j
	.def	_Z2b4j;	.scl	2;	.type	32;	.endef
	.seh_proc	_Z2b4j
_Z2b4j:
.LFB2465:
	.loc 2 71 25
	.cfi_startproc
	pushq	%rbp
	.seh_pushreg	%rbp
	.cfi_def_cfa_offset 16
	.cfi_offset 6, -16
	movq	%rsp, %rbp
	.seh_setframe	%rbp, 0
	.cfi_def_cfa_register 6
	subq	$16, %rsp
	.seh_stackalloc	16
	.seh_endprologue
	movl	%ecx, 16(%rbp)
	.loc 2 72 11
	movl	$0, -4(%rbp)
.L25:
	.loc 2 73 11 discriminator 2
	cmpl	$0, 16(%rbp)
	je	.L24
	.loc 2 74 7 discriminator 1
	movl	16(%rbp), %eax
	addl	%eax, -4(%rbp)
	.loc 2 73 2 discriminator 1
	subl	$1, 16(%rbp)
	jmp	.L25
.L24:
	.loc 2 75 9
	movl	-4(%rbp), %eax
	.loc 2 76 1
	addq	$16, %rsp
	popq	%rbp
	.cfi_restore 6
	.cfi_def_cfa 7, 8
	ret
	.cfi_endproc
.LFE2465:
	.seh_endproc
	.globl	_Z2b5j
	.def	_Z2b5j;	.scl	2;	.type	32;	.endef
	.seh_proc	_Z2b5j
_Z2b5j:
.LFB2466:
	.loc 2 79 25
	.cfi_startproc
	pushq	%rbp
	.seh_pushreg	%rbp
	.cfi_def_cfa_offset 16
	.cfi_offset 6, -16
	movq	%rsp, %rbp
	.seh_setframe	%rbp, 0
	.cfi_def_cfa_register 6
	subq	$16, %rsp
	.seh_stackalloc	16
	.seh_endprologue
	movl	%ecx, 16(%rbp)
	.loc 2 80 11
	movl	$1, -4(%rbp)
.LBB6:
	.loc 2 81 11
	movl	$1, -8(%rbp)
.L29:
	.loc 2 81 18 discriminator 3
	movl	-8(%rbp), %eax
	.loc 2 81 20 discriminator 3
	cmpl	%eax, 16(%rbp)
	jb	.L28
	.loc 2 82 11 discriminator 2
	movl	-8(%rbp), %eax
	.loc 2 82 8 discriminator 2
	movl	-4(%rbp), %edx
	imull	%edx, %eax
	movl	%eax, -4(%rbp)
	.loc 2 81 2 discriminator 2
	addl	$1, -8(%rbp)
	jmp	.L29
.L28:
.LBE6:
	.loc 2 83 9
	movl	-4(%rbp), %eax
	.loc 2 84 1
	addq	$16, %rsp
	popq	%rbp
	.cfi_restore 6
	.cfi_def_cfa 7, 8
	ret
	.cfi_endproc
.LFE2466:
	.seh_endproc
	.globl	_Z2b6j
	.def	_Z2b6j;	.scl	2;	.type	32;	.endef
	.seh_proc	_Z2b6j
_Z2b6j:
.LFB2467:
	.loc 2 87 25
	.cfi_startproc
	pushq	%rbp
	.seh_pushreg	%rbp
	.cfi_def_cfa_offset 16
	.cfi_offset 6, -16
	movq	%rsp, %rbp
	.seh_setframe	%rbp, 0
	.cfi_def_cfa_register 6
	subq	$16, %rsp
	.seh_stackalloc	16
	.seh_endprologue
	movl	%ecx, 16(%rbp)
	.loc 2 88 11
	movl	$100200301, -4(%rbp)
.LBB7:
	.loc 2 89 11
	movl	$1, -8(%rbp)
.L33:
	.loc 2 89 18 discriminator 3
	movl	-8(%rbp), %eax
	.loc 2 89 20 discriminator 3
	cmpl	%eax, 16(%rbp)
	jb	.L32
	.loc 2 90 10 discriminator 2
	movl	-8(%rbp), %ecx
	.loc 2 90 7 discriminator 2
	movl	-4(%rbp), %eax
	movl	$0, %edx
	divl	%ecx
	movl	%eax, -4(%rbp)
	.loc 2 89 2 discriminator 2
	addl	$1, -8(%rbp)
	jmp	.L33
.L32:
.LBE7:
	.loc 2 91 9
	movl	-4(%rbp), %eax
	.loc 2 92 1
	addq	$16, %rsp
	popq	%rbp
	.cfi_restore 6
	.cfi_def_cfa 7, 8
	ret
	.cfi_endproc
.LFE2467:
	.seh_endproc
	.globl	_Z2b7j
	.def	_Z2b7j;	.scl	2;	.type	32;	.endef
	.seh_proc	_Z2b7j
_Z2b7j:
.LFB2468:
	.loc 2 95 25
	.cfi_startproc
	pushq	%rbp
	.seh_pushreg	%rbp
	.cfi_def_cfa_offset 16
	.cfi_offset 6, -16
	movq	%rsp, %rbp
	.seh_setframe	%rbp, 0
	.cfi_def_cfa_register 6
	subq	$16, %rsp
	.seh_stackalloc	16
	.seh_endprologue
	movl	%ecx, 16(%rbp)
	.loc 2 96 11
	movl	$0, -4(%rbp)
.LBB8:
	.loc 2 97 11
	movl	$1, -8(%rbp)
.L37:
	.loc 2 97 18 discriminator 3
	movl	-8(%rbp), %eax
	.loc 2 97 20 discriminator 3
	cmpl	%eax, 16(%rbp)
	jb	.L36
	.loc 2 98 12 discriminator 2
	movl	-8(%rbp), %eax
	movslq	%eax, %rdx
	imulq	$701575699, %rdx, %rdx
	shrq	$32, %rdx
	sarl	$14, %edx
	movl	%eax, %ecx
	sarl	$31, %ecx
	subl	%ecx, %edx
	imull	$100301, %edx, %ecx
	subl	%ecx, %eax
	movl	%eax, %edx
	movl	%edx, %eax
	.loc 2 98 7 discriminator 2
	addl	%eax, -4(%rbp)
	.loc 2 97 2 discriminator 2
	addl	$1, -8(%rbp)
	jmp	.L37
.L36:
.LBE8:
	.loc 2 99 9
	movl	-4(%rbp), %eax
	.loc 2 100 1
	addq	$16, %rsp
	popq	%rbp
	.cfi_restore 6
	.cfi_def_cfa 7, 8
	ret
	.cfi_endproc
.LFE2468:
	.seh_endproc
	.globl	_Z6array1PKjj
	.def	_Z6array1PKjj;	.scl	2;	.type	32;	.endef
	.seh_proc	_Z6array1PKjj
_Z6array1PKjj:
.LFB2469:
	.loc 2 130 49
	.cfi_startproc
	pushq	%rbp
	.seh_pushreg	%rbp
	.cfi_def_cfa_offset 16
	.cfi_offset 6, -16
	movq	%rsp, %rbp
	.seh_setframe	%rbp, 0
	.cfi_def_cfa_register 6
	subq	$16, %rsp
	.seh_stackalloc	16
	.seh_endprologue
	movq	%rcx, 16(%rbp)
	movl	%edx, 24(%rbp)
	.loc 2 131 11
	movq	$0, -8(%rbp)
.LBB9:
	.loc 2 132 11
	movl	$0, -12(%rbp)
.L41:
	.loc 2 132 18 discriminator 3
	movl	-12(%rbp), %eax
	.loc 2 132 20 discriminator 3
	cmpl	%eax, 24(%rbp)
	jbe	.L40
	.loc 2 133 12 discriminator 2
	movl	-12(%rbp), %eax
	cltq
	.loc 2 133 13 discriminator 2
	leaq	0(,%rax,4), %rdx
	movq	16(%rbp), %rax
	addq	%rdx, %rax
	movl	(%rax), %eax
	movl	%eax, %eax
	.loc 2 133 7 discriminator 2
	addq	%rax, -8(%rbp)
	.loc 2 132 2 discriminator 2
	addl	$1, -12(%rbp)
	jmp	.L41
.L40:
.LBE9:
	.loc 2 134 9
	movq	-8(%rbp), %rax
	.loc 2 135 1
	addq	$16, %rsp
	popq	%rbp
	.cfi_restore 6
	.cfi_def_cfa 7, 8
	ret
	.cfi_endproc
.LFE2469:
	.seh_endproc
	.globl	_Z6array2Pjj
	.def	_Z6array2Pjj;	.scl	2;	.type	32;	.endef
	.seh_proc	_Z6array2Pjj
_Z6array2Pjj:
.LFB2470:
	.loc 2 138 43
	.cfi_startproc
	pushq	%rbp
	.seh_pushreg	%rbp
	.cfi_def_cfa_offset 16
	.cfi_offset 6, -16
	movq	%rsp, %rbp
	.seh_setframe	%rbp, 0
	.cfi_def_cfa_register 6
	subq	$16, %rsp
	.seh_stackalloc	16
	.seh_endprologue
	movq	%rcx, 16(%rbp)
	movl	%edx, 24(%rbp)
	.loc 2 139 11
	movq	$0, -8(%rbp)
	.loc 2 140 8
	subl	$1, 24(%rbp)
.L45:
	.loc 2 140 14 discriminator 3
	cmpl	$0, 24(%rbp)
	je	.L44
	.loc 2 141 12 discriminator 2
	movl	24(%rbp), %eax
	.loc 2 141 13 discriminator 2
	leaq	0(,%rax,4), %rdx
	movq	16(%rbp), %rax
	addq	%rdx, %rax
	movl	(%rax), %eax
	movl	%eax, %eax
	.loc 2 141 7 discriminator 2
	addq	%rax, -8(%rbp)
	.loc 2 140 2 discriminator 2
	subl	$1, 24(%rbp)
	jmp	.L45
.L44:
	.loc 2 142 12
	movq	16(%rbp), %rax
	movl	(%rax), %eax
	movl	%eax, %eax
	.loc 2 142 6
	addq	%rax, -8(%rbp)
	.loc 2 143 9
	movq	-8(%rbp), %rax
	.loc 2 144 1
	addq	$16, %rsp
	popq	%rbp
	.cfi_restore 6
	.cfi_def_cfa 7, 8
	ret
	.cfi_endproc
.LFE2470:
	.seh_endproc
	.globl	_Z6array3Pjj
	.def	_Z6array3Pjj;	.scl	2;	.type	32;	.endef
	.seh_proc	_Z6array3Pjj
_Z6array3Pjj:
.LFB2471:
	.loc 2 151 43
	.cfi_startproc
	pushq	%rbp
	.seh_pushreg	%rbp
	.cfi_def_cfa_offset 16
	.cfi_offset 6, -16
	movq	%rsp, %rbp
	.seh_setframe	%rbp, 0
	.cfi_def_cfa_register 6
	subq	$16, %rsp
	.seh_stackalloc	16
	.seh_endprologue
	movq	%rcx, 16(%rbp)
	movl	%edx, 24(%rbp)
	.loc 2 152 11
	movq	$0, -8(%rbp)
	.loc 2 157 10
	movq	-8(%rbp), %rax
	.loc 2 158 1
	addq	$16, %rsp
	popq	%rbp
	.cfi_restore 6
	.cfi_def_cfa 7, 8
	ret
	.cfi_endproc
.LFE2471:
	.seh_endproc
	.globl	_Z6array4Pjj
	.def	_Z6array4Pjj;	.scl	2;	.type	32;	.endef
	.seh_proc	_Z6array4Pjj
_Z6array4Pjj:
.LFB2472:
	.loc 2 168 43
	.cfi_startproc
	pushq	%rbp
	.seh_pushreg	%rbp
	.cfi_def_cfa_offset 16
	.cfi_offset 6, -16
	movq	%rsp, %rbp
	.seh_setframe	%rbp, 0
	.cfi_def_cfa_register 6
	subq	$16, %rsp
	.seh_stackalloc	16
	.seh_endprologue
	movq	%rcx, 16(%rbp)
	movl	%edx, 24(%rbp)
	.loc 2 169 12
	movq	$0, -8(%rbp)
	.loc 2 174 9
	movq	-8(%rbp), %rax
	.loc 2 175 1
	addq	$16, %rsp
	popq	%rbp
	.cfi_restore 6
	.cfi_def_cfa 7, 8
	ret
	.cfi_endproc
.LFE2472:
	.seh_endproc
	.globl	_Z6array5Pjj
	.def	_Z6array5Pjj;	.scl	2;	.type	32;	.endef
	.seh_proc	_Z6array5Pjj
_Z6array5Pjj:
.LFB2473:
	.loc 2 180 43
	.cfi_startproc
	pushq	%rbp
	.seh_pushreg	%rbp
	.cfi_def_cfa_offset 16
	.cfi_offset 6, -16
	movq	%rsp, %rbp
	.seh_setframe	%rbp, 0
	.cfi_def_cfa_register 6
	subq	$32, %rsp
	.seh_stackalloc	32
	.seh_endprologue
	movq	%rcx, 16(%rbp)
	movl	%edx, 24(%rbp)
	.loc 2 181 12
	movq	$0, -8(%rbp)
	.loc 2 182 17
	movl	$32, -20(%rbp)
.LBB10:
	.loc 2 183 16
	movl	$0, -12(%rbp)
.L55:
	.loc 2 183 25 discriminator 1
	cmpl	$31, -12(%rbp)
	ja	.L52
.LBB11:
.LBB12:
	.loc 2 184 17
	movl	-12(%rbp), %eax
	movl	%eax, -16(%rbp)
.L54:
	.loc 2 184 26 discriminator 3
	movl	-16(%rbp), %eax
	cmpl	24(%rbp), %eax
	jnb	.L53
	.loc 2 185 16 discriminator 2
	movl	-16(%rbp), %eax
	.loc 2 185 17 discriminator 2
	leaq	0(,%rax,4), %rdx
	movq	16(%rbp), %rax
	addq	%rdx, %rax
	movl	(%rax), %eax
	movl	%eax, %eax
	.loc 2 185 11 discriminator 2
	addq	%rax, -8(%rbp)
	.loc 2 184 33 discriminator 2
	addl	$32, -16(%rbp)
	.loc 2 184 3 discriminator 2
	jmp	.L54
.L53:
.LBE12:
.LBE11:
	.loc 2 183 2 discriminator 2
	addl	$1, -12(%rbp)
	jmp	.L55
.L52:
.LBE10:
	.loc 2 187 9
	movq	-8(%rbp), %rax
	.loc 2 188 1
	addq	$32, %rsp
	popq	%rbp
	.cfi_restore 6
	.cfi_def_cfa 7, 8
	ret
	.cfi_endproc
.LFE2473:
	.seh_endproc
	.globl	_Z6array6Pjj
	.def	_Z6array6Pjj;	.scl	2;	.type	32;	.endef
	.seh_proc	_Z6array6Pjj
_Z6array6Pjj:
.LFB2474:
	.loc 2 197 43
	.cfi_startproc
	pushq	%rbp
	.seh_pushreg	%rbp
	.cfi_def_cfa_offset 16
	.cfi_offset 6, -16
	movq	%rsp, %rbp
	.seh_setframe	%rbp, 0
	.cfi_def_cfa_register 6
	subq	$32, %rsp
	.seh_stackalloc	32
	.seh_endprologue
	movq	%rcx, 16(%rbp)
	movl	%edx, 24(%rbp)
	.loc 2 198 12
	movq	$0, -8(%rbp)
	.loc 2 199 17
	movl	$1024, -20(%rbp)
.LBB13:
	.loc 2 200 16
	movl	$0, -12(%rbp)
.L61:
	.loc 2 200 25 discriminator 1
	cmpl	$1023, -12(%rbp)
	ja	.L58
.LBB14:
.LBB15:
	.loc 2 201 17
	movl	-12(%rbp), %eax
	movl	%eax, -16(%rbp)
.L60:
	.loc 2 201 26 discriminator 3
	movl	-16(%rbp), %eax
	cmpl	24(%rbp), %eax
	jnb	.L59
	.loc 2 202 13 discriminator 2
	movl	-16(%rbp), %eax
	.loc 2 202 14 discriminator 2
	leaq	0(,%rax,4), %rdx
	movq	16(%rbp), %rax
	addq	%rdx, %rax
	movl	(%rax), %eax
	movl	%eax, %eax
	.loc 2 202 8 discriminator 2
	addq	%rax, -8(%rbp)
	.loc 2 201 33 discriminator 2
	addl	$1024, -16(%rbp)
	.loc 2 201 3 discriminator 2
	jmp	.L60
.L59:
.LBE15:
.LBE14:
	.loc 2 200 2 discriminator 2
	addl	$1, -12(%rbp)
	jmp	.L61
.L58:
.LBE13:
	.loc 2 204 9
	movq	-8(%rbp), %rax
	.loc 2 205 1
	addq	$32, %rsp
	popq	%rbp
	.cfi_restore 6
	.cfi_def_cfa 7, 8
	ret
	.cfi_endproc
.LFE2474:
	.seh_endproc
	.def	__main;	.scl	2;	.type	32;	.endef
	.section .rdata,"dr"
.LC0:
	.ascii "a1\0"
.LC1:
	.ascii "a2\0"
.LC2:
	.ascii "b1\0"
.LC3:
	.ascii "b1b\0"
.LC4:
	.ascii "b2\0"
.LC5:
	.ascii "b3\0"
.LC6:
	.ascii "b3b\0"
.LC7:
	.ascii "b4\0"
.LC8:
	.ascii "b5\0"
.LC9:
	.ascii "b6\0"
.LC10:
	.ascii "b7\0"
.LC11:
	.ascii "readOneLocation\0"
.LC12:
	.ascii "readArray\0"
.LC13:
	.ascii "writeArray\0"
.LC14:
	.ascii "array1\0"
.LC15:
	.ascii "array2\0"
.LC16:
	.ascii "array3\0"
.LC17:
	.ascii "array4\0"
.LC18:
	.ascii "array5\0"
.LC19:
	.ascii "array6\0"
	.text
	.globl	main
	.def	main;	.scl	2;	.type	32;	.endef
	.seh_proc	main
main:
.LFB2477:
	.loc 2 273 12
	.cfi_startproc
	pushq	%rbp
	.seh_pushreg	%rbp
	.cfi_def_cfa_offset 16
	.cfi_offset 6, -16
	movq	%rsp, %rbp
	.seh_setframe	%rbp, 0
	.cfi_def_cfa_register 6
	subq	$64, %rsp
	.seh_stackalloc	64
	.seh_endprologue
	.loc 2 273 12
	call	__main
	.loc 2 278 21
	movl	$5, -4(%rbp)
	.loc 2 280 17
	movl	$200000000, -8(%rbp)
	.loc 2 281 12
	movl	$5, %r9d
	movl	$200000000, %r8d
	movq	.refptr._Z2a1j(%rip), %rdx
	leaq	.LC0(%rip), %rcx
	call	_Z10benchmark1IPFjjEEvPKcT_jj
	.loc 2 282 13
	movl	$5, %r9d
	movl	$200000000, %r8d
	movq	.refptr._Z2a2j(%rip), %rdx
	leaq	.LC1(%rip), %rcx
	call	_Z10benchmark1IPFjjEEvPKcT_jj
	.loc 2 283 12
	movl	$5, %r9d
	movl	$200000000, %r8d
	leaq	_Z2b1j(%rip), %rdx
	leaq	.LC2(%rip), %rcx
	call	_Z10benchmark1IPFjjEEvPKcT_jj
	.loc 2 284 12
	movl	$5, %r9d
	movl	$200000000, %r8d
	leaq	_Z3b1bj(%rip), %rdx
	leaq	.LC3(%rip), %rcx
	call	_Z10benchmark1IPFjjEEvPKcT_jj
	.loc 2 285 12
	movl	$5, %r9d
	movl	$200000000, %r8d
	leaq	_Z2b2j(%rip), %rdx
	leaq	.LC4(%rip), %rcx
	call	_Z10benchmark1IPFjjEEvPKcT_jj
	.loc 2 286 12
	movl	$5, %r9d
	movl	$200000000, %r8d
	leaq	_Z2b3j(%rip), %rdx
	leaq	.LC5(%rip), %rcx
	call	_Z10benchmark1IPFjjEEvPKcT_jj
	.loc 2 287 12
	movl	$5, %r9d
	movl	$200000000, %r8d
	leaq	_Z3b3by(%rip), %rdx
	leaq	.LC6(%rip), %rcx
	call	_Z10benchmark1IPFyyEEvPKcT_jj
	.loc 2 288 12
	movl	$5, %r9d
	movl	$200000000, %r8d
	leaq	_Z2b4j(%rip), %rdx
	leaq	.LC7(%rip), %rcx
	call	_Z10benchmark1IPFjjEEvPKcT_jj
	.loc 2 289 12
	movl	$5, %r9d
	movl	$200000000, %r8d
	leaq	_Z2b5j(%rip), %rdx
	leaq	.LC8(%rip), %rcx
	call	_Z10benchmark1IPFjjEEvPKcT_jj
	.loc 2 290 12
	movl	$5, %r9d
	movl	$200000000, %r8d
	leaq	_Z2b6j(%rip), %rdx
	leaq	.LC9(%rip), %rcx
	call	_Z10benchmark1IPFjjEEvPKcT_jj
	.loc 2 291 12
	movl	$5, %r9d
	movl	$200000000, %r8d
	leaq	_Z2b7j(%rip), %rdx
	leaq	.LC10(%rip), %rcx
	call	_Z10benchmark1IPFjjEEvPKcT_jj
	.loc 2 299 17
	movl	$10000000, -12(%rbp)
	.loc 2 303 17
	movl	$40, -16(%rbp)
	.loc 2 305 12
	movl	$5, 32(%rsp)
	movl	$40, %r9d
	movl	$10000000, %r8d
	movq	.refptr._Z15readOneLocationPji(%rip), %rdx
	leaq	.LC11(%rip), %rcx
	call	_Z10benchmark2IPFjPjiEEvPKcT_jjj
	.loc 2 306 12
	movl	$5, 32(%rsp)
	movl	$40, %r9d
	movl	$10000000, %r8d
	movq	.refptr._Z9readArrayPji(%rip), %rdx
	leaq	.LC12(%rip), %rcx
	call	_Z10benchmark2IPFjPjiEEvPKcT_jjj
	.loc 2 307 12
	movl	$5, 32(%rsp)
	movl	$40, %r9d
	movl	$10000000, %r8d
	movq	.refptr._Z10writeArrayPji(%rip), %rdx
	leaq	.LC13(%rip), %rcx
	call	_Z10benchmark2IPFjPjiEEvPKcT_jjj
	.loc 2 308 12
	movl	$5, 32(%rsp)
	movl	$40, %r9d
	movl	$10000000, %r8d
	leaq	_Z6array1PKjj(%rip), %rdx
	leaq	.LC14(%rip), %rcx
	call	_Z10benchmark2IPFyPKjjEEvPKcT_jjj
	.loc 2 309 12
	movl	$5, 32(%rsp)
	movl	$40, %r9d
	movl	$10000000, %r8d
	leaq	_Z6array2Pjj(%rip), %rdx
	leaq	.LC15(%rip), %rcx
	call	_Z10benchmark2IPFyPjjEEvPKcT_jjj
	.loc 2 312 15
	movl	$5, 32(%rsp)
	movl	$40, %r9d
	movl	$10000000, %r8d
	leaq	_Z6array3Pjj(%rip), %rdx
	leaq	.LC16(%rip), %rcx
	call	_Z10benchmark2IPFyPjjEEvPKcT_jjj
	.loc 2 313 15
	movl	$5, 32(%rsp)
	movl	$40, %r9d
	movl	$10000000, %r8d
	leaq	_Z6array4Pjj(%rip), %rdx
	leaq	.LC17(%rip), %rcx
	call	_Z10benchmark2IPFyPjjEEvPKcT_jjj
	.loc 2 314 15
	movl	$5, 32(%rsp)
	movl	$40, %r9d
	movl	$10000000, %r8d
	leaq	_Z6array5Pjj(%rip), %rdx
	leaq	.LC18(%rip), %rcx
	call	_Z10benchmark2IPFyPjjEEvPKcT_jjj
	.loc 2 315 15
	movl	$5, 32(%rsp)
	movl	$40, %r9d
	movl	$10000000, %r8d
	leaq	_Z6array6Pjj(%rip), %rdx
	leaq	.LC19(%rip), %rcx
	call	_Z10benchmark2IPFyPjjEEvPKcT_jjj
	.loc 2 316 1
	movl	$0, %eax
	addq	$64, %rsp
	popq	%rbp
	.cfi_restore 6
	.cfi_def_cfa 7, 8
	ret
	.cfi_endproc
.LFE2477:
	.seh_endproc
	.section	.text$_Z10benchmark1IPFjjEEvPKcT_jj,"x"
	.linkonce discard
	.globl	_Z10benchmark1IPFjjEEvPKcT_jj
	.def	_Z10benchmark1IPFjjEEvPKcT_jj;	.scl	2;	.type	32;	.endef
	.seh_proc	_Z10benchmark1IPFjjEEvPKcT_jj
_Z10benchmark1IPFjjEEvPKcT_jj:
.LFB2736:
	.loc 2 239 6
	.cfi_startproc
	pushq	%rbp
	.seh_pushreg	%rbp
	.cfi_def_cfa_offset 16
	.cfi_offset 6, -16
	pushq	%rbx
	.seh_pushreg	%rbx
	.cfi_def_cfa_offset 24
	.cfi_offset 3, -24
	subq	$72, %rsp
	.seh_stackalloc	72
	.cfi_def_cfa_offset 96
	leaq	128(%rsp), %rbp
	.seh_setframe	%rbp, 128
	.cfi_def_cfa 6, -32
	.seh_endprologue
	movq	%rcx, -32(%rbp)
	movq	%rdx, -24(%rbp)
	movl	%r8d, -16(%rbp)
	movl	%r9d, -8(%rbp)
.LBB16:
	.loc 2 240 16
	movl	$0, -68(%rbp)
.L67:
	.loc 2 240 35 discriminator 3
	movl	-68(%rbp), %eax
	cmpl	-8(%rbp), %eax
	jnb	.L68
.LBB17:
	.loc 2 241 21 discriminator 2
	call	clock
	movl	%eax, -72(%rbp)
	.loc 2 242 19 discriminator 2
	movl	-16(%rbp), %eax
	movq	-24(%rbp), %rdx
	movl	%eax, %ecx
	call	*%rdx
.LVL0:
	.loc 2 242 12 discriminator 2
	movl	%eax, %eax
	movq	%rax, -80(%rbp)
	.loc 2 243 21 discriminator 2
	call	clock
	movl	%eax, -84(%rbp)
	.loc 2 244 27 discriminator 2
	movl	$12, %ecx
	call	_ZSt4setwi
	movl	%eax, %edx
	movq	.refptr._ZSt4cout(%rip), %rcx
	call	_ZStlsIcSt11char_traitsIcEERSt13basic_ostreamIT_T0_ES6_St5_Setw
	movq	-32(%rbp), %rdx
	movq	%rax, %rcx
	call	_ZStlsISt11char_traitsIcEERSt13basic_ostreamIcT_ES5_PKc
	movq	%rax, %rbx
	movl	$18, %ecx
	call	_ZSt4setwi
	movl	%eax, %edx
	movq	%rbx, %rcx
	call	_ZStlsIcSt11char_traitsIcEERSt13basic_ostreamIT_T0_ES6_St5_Setw
	movq	%rax, %rcx
	.loc 2 244 39 discriminator 2
	movq	-80(%rbp), %rax
	movq	%rax, %rdx
	call	_ZNSolsEy
	.loc 2 244 46 discriminator 2
	movl	$9, %edx
	movq	%rax, %rcx
	call	_ZStlsISt11char_traitsIcEERSt13basic_ostreamIcT_ES5_c
	movq	%rax, %rcx
	.loc 2 244 54 discriminator 2
	movl	-84(%rbp), %eax
	subl	-72(%rbp), %eax
	movl	%eax, %edx
	call	_ZNSolsEl
	.loc 2 244 65 discriminator 2
	movl	$10, %edx
	movq	%rax, %rcx
	call	_ZStlsISt11char_traitsIcEERSt13basic_ostreamIcT_ES5_c
.LBE17:
	.loc 2 240 2 discriminator 2
	addl	$1, -68(%rbp)
	jmp	.L67
.L68:
.LBE16:
	.loc 2 246 1
	nop
	addq	$72, %rsp
	popq	%rbx
	.cfi_restore 3
	popq	%rbp
	.cfi_restore 6
	.cfi_def_cfa 7, -56
	ret
	.cfi_endproc
.LFE2736:
	.seh_endproc
	.section	.text$_Z10benchmark1IPFyyEEvPKcT_jj,"x"
	.linkonce discard
	.globl	_Z10benchmark1IPFyyEEvPKcT_jj
	.def	_Z10benchmark1IPFyyEEvPKcT_jj;	.scl	2;	.type	32;	.endef
	.seh_proc	_Z10benchmark1IPFyyEEvPKcT_jj
_Z10benchmark1IPFyyEEvPKcT_jj:
.LFB2737:
	.loc 2 239 6
	.cfi_startproc
	pushq	%rbp
	.seh_pushreg	%rbp
	.cfi_def_cfa_offset 16
	.cfi_offset 6, -16
	pushq	%rbx
	.seh_pushreg	%rbx
	.cfi_def_cfa_offset 24
	.cfi_offset 3, -24
	subq	$72, %rsp
	.seh_stackalloc	72
	.cfi_def_cfa_offset 96
	leaq	128(%rsp), %rbp
	.seh_setframe	%rbp, 128
	.cfi_def_cfa 6, -32
	.seh_endprologue
	movq	%rcx, -32(%rbp)
	movq	%rdx, -24(%rbp)
	movl	%r8d, -16(%rbp)
	movl	%r9d, -8(%rbp)
.LBB18:
	.loc 2 240 16
	movl	$0, -68(%rbp)
.L71:
	.loc 2 240 35 discriminator 3
	movl	-68(%rbp), %eax
	cmpl	-8(%rbp), %eax
	jnb	.L72
.LBB19:
	.loc 2 241 21 discriminator 2
	call	clock
	movl	%eax, -72(%rbp)
	.loc 2 242 19 discriminator 2
	movl	-16(%rbp), %eax
	movq	-24(%rbp), %rdx
	movq	%rax, %rcx
	call	*%rdx
.LVL1:
	movq	%rax, -80(%rbp)
	.loc 2 243 21 discriminator 2
	call	clock
	movl	%eax, -84(%rbp)
	.loc 2 244 27 discriminator 2
	movl	$12, %ecx
	call	_ZSt4setwi
	movl	%eax, %edx
	movq	.refptr._ZSt4cout(%rip), %rcx
	call	_ZStlsIcSt11char_traitsIcEERSt13basic_ostreamIT_T0_ES6_St5_Setw
	movq	-32(%rbp), %rdx
	movq	%rax, %rcx
	call	_ZStlsISt11char_traitsIcEERSt13basic_ostreamIcT_ES5_PKc
	movq	%rax, %rbx
	movl	$18, %ecx
	call	_ZSt4setwi
	movl	%eax, %edx
	movq	%rbx, %rcx
	call	_ZStlsIcSt11char_traitsIcEERSt13basic_ostreamIT_T0_ES6_St5_Setw
	movq	%rax, %rcx
	.loc 2 244 39 discriminator 2
	movq	-80(%rbp), %rax
	movq	%rax, %rdx
	call	_ZNSolsEy
	.loc 2 244 46 discriminator 2
	movl	$9, %edx
	movq	%rax, %rcx
	call	_ZStlsISt11char_traitsIcEERSt13basic_ostreamIcT_ES5_c
	movq	%rax, %rcx
	.loc 2 244 54 discriminator 2
	movl	-84(%rbp), %eax
	subl	-72(%rbp), %eax
	movl	%eax, %edx
	call	_ZNSolsEl
	.loc 2 244 65 discriminator 2
	movl	$10, %edx
	movq	%rax, %rcx
	call	_ZStlsISt11char_traitsIcEERSt13basic_ostreamIcT_ES5_c
.LBE19:
	.loc 2 240 2 discriminator 2
	addl	$1, -68(%rbp)
	jmp	.L71
.L72:
.LBE18:
	.loc 2 246 1
	nop
	addq	$72, %rsp
	popq	%rbx
	.cfi_restore 3
	popq	%rbp
	.cfi_restore 6
	.cfi_def_cfa 7, -56
	ret
	.cfi_endproc
.LFE2737:
	.seh_endproc
	.section	.text$_Z10benchmark2IPFjPjiEEvPKcT_jjj,"x"
	.linkonce discard
	.globl	_Z10benchmark2IPFjPjiEEvPKcT_jjj
	.def	_Z10benchmark2IPFjPjiEEvPKcT_jjj;	.scl	2;	.type	32;	.endef
	.seh_proc	_Z10benchmark2IPFjPjiEEvPKcT_jjj
_Z10benchmark2IPFjPjiEEvPKcT_jjj:
.LFB2738:
	.loc 2 254 6
	.cfi_startproc
	pushq	%rbp
	.seh_pushreg	%rbp
	.cfi_def_cfa_offset 16
	.cfi_offset 6, -16
	pushq	%rbx
	.seh_pushreg	%rbx
	.cfi_def_cfa_offset 24
	.cfi_offset 3, -24
	subq	$72, %rsp
	.seh_stackalloc	72
	.cfi_def_cfa_offset 96
	leaq	128(%rsp), %rbp
	.seh_setframe	%rbp, 128
	.cfi_def_cfa 6, -32
	.seh_endprologue
	movq	%rcx, -32(%rbp)
	movq	%rdx, -24(%rbp)
	movl	%r8d, -16(%rbp)
	movl	%r9d, -8(%rbp)
	.loc 2 257 29
	movl	-16(%rbp), %eax
	.loc 2 257 16
	movabsq	$2305843009213693950, %rdx
	cmpq	%rdx, %rax
	ja	.L74
	.loc 2 257 16 is_stmt 0 discriminator 1
	salq	$2, %rax
	movq	%rax, %rcx
	call	_Znay
	movq	%rax, -88(%rbp)
.LBB20:
	.loc 2 258 11 is_stmt 1 discriminator 1
	movl	$0, -68(%rbp)
	jmp	.L77
.L74:
.LBE20:
	.loc 2 257 16 discriminator 2
	call	__cxa_throw_bad_array_new_length
.L77:
.LBB21:
	.loc 2 258 19 discriminator 3
	movl	-68(%rbp), %eax
	.loc 2 258 21 discriminator 3
	cmpl	%eax, -16(%rbp)
	jbe	.L76
	.loc 2 259 5 discriminator 2
	movl	-68(%rbp), %eax
	cltq
	.loc 2 259 6 discriminator 2
	leaq	0(,%rax,4), %rdx
	movq	-88(%rbp), %rax
	addq	%rax, %rdx
	.loc 2 259 10 discriminator 2
	movl	-68(%rbp), %eax
	.loc 2 259 8 discriminator 2
	movl	%eax, (%rdx)
	.loc 2 258 2 discriminator 2
	addl	$1, -68(%rbp)
	jmp	.L77
.L76:
.LBE21:
.LBB22:
	.loc 2 261 11
	movl	$0, -72(%rbp)
.L81:
	.loc 2 261 23 discriminator 1
	movl	-72(%rbp), %eax
	.loc 2 261 30 discriminator 1
	cmpl	%eax, 0(%rbp)
	jbe	.L78
.LBB23:
	.loc 2 262 21
	call	clock
	movl	%eax, -92(%rbp)
	.loc 2 263 12
	movl	$0, -76(%rbp)
.LBB24:
	.loc 2 264 17
	movl	$0, -80(%rbp)
.L80:
	.loc 2 264 26 discriminator 3
	movl	-80(%rbp), %eax
	cmpl	-8(%rbp), %eax
	jnb	.L79
	.loc 2 265 12 discriminator 2
	movl	-16(%rbp), %edx
	movq	-88(%rbp), %rax
	movq	-24(%rbp), %r8
	movq	%rax, %rcx
	call	*%r8
.LVL2:
	.loc 2 265 8 discriminator 2
	addl	%eax, -76(%rbp)
	.loc 2 264 3 discriminator 2
	addl	$1, -80(%rbp)
	jmp	.L80
.L79:
.LBE24:
	.loc 2 267 21 discriminator 2
	call	clock
	movl	%eax, -96(%rbp)
	.loc 2 268 27 discriminator 2
	movl	$12, %ecx
	call	_ZSt4setwi
	movl	%eax, %edx
	movq	.refptr._ZSt4cout(%rip), %rcx
	call	_ZStlsIcSt11char_traitsIcEERSt13basic_ostreamIT_T0_ES6_St5_Setw
	movq	-32(%rbp), %rdx
	movq	%rax, %rcx
	call	_ZStlsISt11char_traitsIcEERSt13basic_ostreamIcT_ES5_PKc
	movq	%rax, %rbx
	movl	$18, %ecx
	call	_ZSt4setwi
	movl	%eax, %edx
	movq	%rbx, %rcx
	call	_ZStlsIcSt11char_traitsIcEERSt13basic_ostreamIT_T0_ES6_St5_Setw
	movq	%rax, %rcx
	.loc 2 268 39 discriminator 2
	movl	-76(%rbp), %eax
	movl	%eax, %edx
	call	_ZNSolsEj
	.loc 2 268 46 discriminator 2
	movl	$9, %edx
	movq	%rax, %rcx
	call	_ZStlsISt11char_traitsIcEERSt13basic_ostreamIcT_ES5_c
	movq	%rax, %rcx
	.loc 2 268 54 discriminator 2
	movl	-96(%rbp), %eax
	subl	-92(%rbp), %eax
	movl	%eax, %edx
	call	_ZNSolsEl
	.loc 2 268 65 discriminator 2
	movl	$10, %edx
	movq	%rax, %rcx
	call	_ZStlsISt11char_traitsIcEERSt13basic_ostreamIcT_ES5_c
.LBE23:
	.loc 2 261 2 discriminator 2
	addl	$1, -72(%rbp)
	jmp	.L81
.L78:
.LBE22:
	.loc 2 270 2
	cmpq	$0, -88(%rbp)
	je	.L83
	.loc 2 270 2 is_stmt 0 discriminator 1
	movq	-88(%rbp), %rax
	movq	%rax, %rcx
	call	_ZdaPv
.L83:
	.loc 2 271 1 is_stmt 1
	nop
	addq	$72, %rsp
	popq	%rbx
	.cfi_restore 3
	popq	%rbp
	.cfi_restore 6
	.cfi_def_cfa 7, -56
	ret
	.cfi_endproc
.LFE2738:
	.seh_endproc
	.section	.text$_Z10benchmark2IPFyPKjjEEvPKcT_jjj,"x"
	.linkonce discard
	.globl	_Z10benchmark2IPFyPKjjEEvPKcT_jjj
	.def	_Z10benchmark2IPFyPKjjEEvPKcT_jjj;	.scl	2;	.type	32;	.endef
	.seh_proc	_Z10benchmark2IPFyPKjjEEvPKcT_jjj
_Z10benchmark2IPFyPKjjEEvPKcT_jjj:
.LFB2739:
	.loc 2 254 6
	.cfi_startproc
	pushq	%rbp
	.seh_pushreg	%rbp
	.cfi_def_cfa_offset 16
	.cfi_offset 6, -16
	pushq	%rbx
	.seh_pushreg	%rbx
	.cfi_def_cfa_offset 24
	.cfi_offset 3, -24
	subq	$72, %rsp
	.seh_stackalloc	72
	.cfi_def_cfa_offset 96
	leaq	128(%rsp), %rbp
	.seh_setframe	%rbp, 128
	.cfi_def_cfa 6, -32
	.seh_endprologue
	movq	%rcx, -32(%rbp)
	movq	%rdx, -24(%rbp)
	movl	%r8d, -16(%rbp)
	movl	%r9d, -8(%rbp)
	.loc 2 257 29
	movl	-16(%rbp), %eax
	.loc 2 257 16
	movabsq	$2305843009213693950, %rdx
	cmpq	%rdx, %rax
	ja	.L85
	.loc 2 257 16 is_stmt 0 discriminator 1
	salq	$2, %rax
	movq	%rax, %rcx
	call	_Znay
	movq	%rax, -88(%rbp)
.LBB25:
	.loc 2 258 11 is_stmt 1 discriminator 1
	movl	$0, -68(%rbp)
	jmp	.L88
.L85:
.LBE25:
	.loc 2 257 16 discriminator 2
	call	__cxa_throw_bad_array_new_length
.L88:
.LBB26:
	.loc 2 258 19 discriminator 3
	movl	-68(%rbp), %eax
	.loc 2 258 21 discriminator 3
	cmpl	%eax, -16(%rbp)
	jbe	.L87
	.loc 2 259 5 discriminator 2
	movl	-68(%rbp), %eax
	cltq
	.loc 2 259 6 discriminator 2
	leaq	0(,%rax,4), %rdx
	movq	-88(%rbp), %rax
	addq	%rax, %rdx
	.loc 2 259 10 discriminator 2
	movl	-68(%rbp), %eax
	.loc 2 259 8 discriminator 2
	movl	%eax, (%rdx)
	.loc 2 258 2 discriminator 2
	addl	$1, -68(%rbp)
	jmp	.L88
.L87:
.LBE26:
.LBB27:
	.loc 2 261 11
	movl	$0, -72(%rbp)
.L92:
	.loc 2 261 23 discriminator 1
	movl	-72(%rbp), %eax
	.loc 2 261 30 discriminator 1
	cmpl	%eax, 0(%rbp)
	jbe	.L89
.LBB28:
	.loc 2 262 21
	call	clock
	movl	%eax, -92(%rbp)
	.loc 2 263 12
	movl	$0, -76(%rbp)
.LBB29:
	.loc 2 264 17
	movl	$0, -80(%rbp)
.L91:
	.loc 2 264 26 discriminator 3
	movl	-80(%rbp), %eax
	cmpl	-8(%rbp), %eax
	jnb	.L90
	.loc 2 265 12 discriminator 2
	movl	-16(%rbp), %edx
	movq	-88(%rbp), %rax
	movq	-24(%rbp), %r8
	movq	%rax, %rcx
	call	*%r8
.LVL3:
	.loc 2 265 8 discriminator 2
	addl	%eax, -76(%rbp)
	.loc 2 264 3 discriminator 2
	addl	$1, -80(%rbp)
	jmp	.L91
.L90:
.LBE29:
	.loc 2 267 21 discriminator 2
	call	clock
	movl	%eax, -96(%rbp)
	.loc 2 268 27 discriminator 2
	movl	$12, %ecx
	call	_ZSt4setwi
	movl	%eax, %edx
	movq	.refptr._ZSt4cout(%rip), %rcx
	call	_ZStlsIcSt11char_traitsIcEERSt13basic_ostreamIT_T0_ES6_St5_Setw
	movq	-32(%rbp), %rdx
	movq	%rax, %rcx
	call	_ZStlsISt11char_traitsIcEERSt13basic_ostreamIcT_ES5_PKc
	movq	%rax, %rbx
	movl	$18, %ecx
	call	_ZSt4setwi
	movl	%eax, %edx
	movq	%rbx, %rcx
	call	_ZStlsIcSt11char_traitsIcEERSt13basic_ostreamIT_T0_ES6_St5_Setw
	movq	%rax, %rcx
	.loc 2 268 39 discriminator 2
	movl	-76(%rbp), %eax
	movl	%eax, %edx
	call	_ZNSolsEj
	.loc 2 268 46 discriminator 2
	movl	$9, %edx
	movq	%rax, %rcx
	call	_ZStlsISt11char_traitsIcEERSt13basic_ostreamIcT_ES5_c
	movq	%rax, %rcx
	.loc 2 268 54 discriminator 2
	movl	-96(%rbp), %eax
	subl	-92(%rbp), %eax
	movl	%eax, %edx
	call	_ZNSolsEl
	.loc 2 268 65 discriminator 2
	movl	$10, %edx
	movq	%rax, %rcx
	call	_ZStlsISt11char_traitsIcEERSt13basic_ostreamIcT_ES5_c
.LBE28:
	.loc 2 261 2 discriminator 2
	addl	$1, -72(%rbp)
	jmp	.L92
.L89:
.LBE27:
	.loc 2 270 2
	cmpq	$0, -88(%rbp)
	je	.L94
	.loc 2 270 2 is_stmt 0 discriminator 1
	movq	-88(%rbp), %rax
	movq	%rax, %rcx
	call	_ZdaPv
.L94:
	.loc 2 271 1 is_stmt 1
	nop
	addq	$72, %rsp
	popq	%rbx
	.cfi_restore 3
	popq	%rbp
	.cfi_restore 6
	.cfi_def_cfa 7, -56
	ret
	.cfi_endproc
.LFE2739:
	.seh_endproc
	.section	.text$_Z10benchmark2IPFyPjjEEvPKcT_jjj,"x"
	.linkonce discard
	.globl	_Z10benchmark2IPFyPjjEEvPKcT_jjj
	.def	_Z10benchmark2IPFyPjjEEvPKcT_jjj;	.scl	2;	.type	32;	.endef
	.seh_proc	_Z10benchmark2IPFyPjjEEvPKcT_jjj
_Z10benchmark2IPFyPjjEEvPKcT_jjj:
.LFB2740:
	.loc 2 254 6
	.cfi_startproc
	pushq	%rbp
	.seh_pushreg	%rbp
	.cfi_def_cfa_offset 16
	.cfi_offset 6, -16
	pushq	%rbx
	.seh_pushreg	%rbx
	.cfi_def_cfa_offset 24
	.cfi_offset 3, -24
	subq	$72, %rsp
	.seh_stackalloc	72
	.cfi_def_cfa_offset 96
	leaq	128(%rsp), %rbp
	.seh_setframe	%rbp, 128
	.cfi_def_cfa 6, -32
	.seh_endprologue
	movq	%rcx, -32(%rbp)
	movq	%rdx, -24(%rbp)
	movl	%r8d, -16(%rbp)
	movl	%r9d, -8(%rbp)
	.loc 2 257 29
	movl	-16(%rbp), %eax
	.loc 2 257 16
	movabsq	$2305843009213693950, %rdx
	cmpq	%rdx, %rax
	ja	.L96
	.loc 2 257 16 is_stmt 0 discriminator 1
	salq	$2, %rax
	movq	%rax, %rcx
	call	_Znay
	movq	%rax, -88(%rbp)
.LBB30:
	.loc 2 258 11 is_stmt 1 discriminator 1
	movl	$0, -68(%rbp)
	jmp	.L99
.L96:
.LBE30:
	.loc 2 257 16 discriminator 2
	call	__cxa_throw_bad_array_new_length
.L99:
.LBB31:
	.loc 2 258 19 discriminator 3
	movl	-68(%rbp), %eax
	.loc 2 258 21 discriminator 3
	cmpl	%eax, -16(%rbp)
	jbe	.L98
	.loc 2 259 5 discriminator 2
	movl	-68(%rbp), %eax
	cltq
	.loc 2 259 6 discriminator 2
	leaq	0(,%rax,4), %rdx
	movq	-88(%rbp), %rax
	addq	%rax, %rdx
	.loc 2 259 10 discriminator 2
	movl	-68(%rbp), %eax
	.loc 2 259 8 discriminator 2
	movl	%eax, (%rdx)
	.loc 2 258 2 discriminator 2
	addl	$1, -68(%rbp)
	jmp	.L99
.L98:
.LBE31:
.LBB32:
	.loc 2 261 11
	movl	$0, -72(%rbp)
.L103:
	.loc 2 261 23 discriminator 1
	movl	-72(%rbp), %eax
	.loc 2 261 30 discriminator 1
	cmpl	%eax, 0(%rbp)
	jbe	.L100
.LBB33:
	.loc 2 262 21
	call	clock
	movl	%eax, -92(%rbp)
	.loc 2 263 12
	movl	$0, -76(%rbp)
.LBB34:
	.loc 2 264 17
	movl	$0, -80(%rbp)
.L102:
	.loc 2 264 26 discriminator 3
	movl	-80(%rbp), %eax
	cmpl	-8(%rbp), %eax
	jnb	.L101
	.loc 2 265 12 discriminator 2
	movl	-16(%rbp), %edx
	movq	-88(%rbp), %rax
	movq	-24(%rbp), %r8
	movq	%rax, %rcx
	call	*%r8
.LVL4:
	.loc 2 265 8 discriminator 2
	addl	%eax, -76(%rbp)
	.loc 2 264 3 discriminator 2
	addl	$1, -80(%rbp)
	jmp	.L102
.L101:
.LBE34:
	.loc 2 267 21 discriminator 2
	call	clock
	movl	%eax, -96(%rbp)
	.loc 2 268 27 discriminator 2
	movl	$12, %ecx
	call	_ZSt4setwi
	movl	%eax, %edx
	movq	.refptr._ZSt4cout(%rip), %rcx
	call	_ZStlsIcSt11char_traitsIcEERSt13basic_ostreamIT_T0_ES6_St5_Setw
	movq	-32(%rbp), %rdx
	movq	%rax, %rcx
	call	_ZStlsISt11char_traitsIcEERSt13basic_ostreamIcT_ES5_PKc
	movq	%rax, %rbx
	movl	$18, %ecx
	call	_ZSt4setwi
	movl	%eax, %edx
	movq	%rbx, %rcx
	call	_ZStlsIcSt11char_traitsIcEERSt13basic_ostreamIT_T0_ES6_St5_Setw
	movq	%rax, %rcx
	.loc 2 268 39 discriminator 2
	movl	-76(%rbp), %eax
	movl	%eax, %edx
	call	_ZNSolsEj
	.loc 2 268 46 discriminator 2
	movl	$9, %edx
	movq	%rax, %rcx
	call	_ZStlsISt11char_traitsIcEERSt13basic_ostreamIcT_ES5_c
	movq	%rax, %rcx
	.loc 2 268 54 discriminator 2
	movl	-96(%rbp), %eax
	subl	-92(%rbp), %eax
	movl	%eax, %edx
	call	_ZNSolsEl
	.loc 2 268 65 discriminator 2
	movl	$10, %edx
	movq	%rax, %rcx
	call	_ZStlsISt11char_traitsIcEERSt13basic_ostreamIcT_ES5_c
.LBE33:
	.loc 2 261 2 discriminator 2
	addl	$1, -72(%rbp)
	jmp	.L103
.L100:
.LBE32:
	.loc 2 270 2
	cmpq	$0, -88(%rbp)
	je	.L105
	.loc 2 270 2 is_stmt 0 discriminator 1
	movq	-88(%rbp), %rax
	movq	%rax, %rcx
	call	_ZdaPv
.L105:
	.loc 2 271 1 is_stmt 1
	nop
	addq	$72, %rsp
	popq	%rbx
	.cfi_restore 3
	popq	%rbp
	.cfi_restore 6
	.cfi_def_cfa 7, -56
	ret
	.cfi_endproc
.LFE2740:
	.seh_endproc
	.text
	.def	__tcf_0;	.scl	3;	.type	32;	.endef
	.seh_proc	__tcf_0
__tcf_0:
.LFB2998:
	.file 3 "C:/msys64/mingw64/include/c++/10.2.0/iostream"
	.loc 3 74 25
	.cfi_startproc
	pushq	%rbp
	.seh_pushreg	%rbp
	.cfi_def_cfa_offset 16
	.cfi_offset 6, -16
	movq	%rsp, %rbp
	.seh_setframe	%rbp, 0
	.cfi_def_cfa_register 6
	subq	$32, %rsp
	.seh_stackalloc	32
	.seh_endprologue
	.loc 3 74 25
	leaq	_ZStL8__ioinit(%rip), %rcx
	call	_ZNSt8ios_base4InitD1Ev
	nop
	addq	$32, %rsp
	popq	%rbp
	.cfi_restore 6
	.cfi_def_cfa 7, 8
	ret
	.cfi_endproc
.LFE2998:
	.seh_endproc
	.def	_Z41__static_initialization_and_destruction_0ii;	.scl	3;	.type	32;	.endef
	.seh_proc	_Z41__static_initialization_and_destruction_0ii
_Z41__static_initialization_and_destruction_0ii:
.LFB2997:
	.loc 2 316 1
	.cfi_startproc
	pushq	%rbp
	.seh_pushreg	%rbp
	.cfi_def_cfa_offset 16
	.cfi_offset 6, -16
	movq	%rsp, %rbp
	.seh_setframe	%rbp, 0
	.cfi_def_cfa_register 6
	subq	$32, %rsp
	.seh_stackalloc	32
	.seh_endprologue
	movl	%ecx, 16(%rbp)
	movl	%edx, 24(%rbp)
	.loc 2 316 1
	cmpl	$1, 16(%rbp)
	jne	.L109
	.loc 2 316 1 is_stmt 0 discriminator 1
	cmpl	$65535, 24(%rbp)
	jne	.L109
	.loc 3 74 25 is_stmt 1
	leaq	_ZStL8__ioinit(%rip), %rcx
	call	_ZNSt8ios_base4InitC1Ev
	leaq	__tcf_0(%rip), %rcx
	call	atexit
.L109:
	.loc 2 316 1
	nop
	addq	$32, %rsp
	popq	%rbp
	.cfi_restore 6
	.cfi_def_cfa 7, 8
	ret
	.cfi_endproc
.LFE2997:
	.seh_endproc
	.def	_GLOBAL__sub_I__Z2b1j;	.scl	3;	.type	32;	.endef
	.seh_proc	_GLOBAL__sub_I__Z2b1j
_GLOBAL__sub_I__Z2b1j:
.LFB2999:
	.loc 2 316 1
	.cfi_startproc
	pushq	%rbp
	.seh_pushreg	%rbp
	.cfi_def_cfa_offset 16
	.cfi_offset 6, -16
	movq	%rsp, %rbp
	.seh_setframe	%rbp, 0
	.cfi_def_cfa_register 6
	subq	$32, %rsp
	.seh_stackalloc	32
	.seh_endprologue
	.loc 2 316 1
	movl	$65535, %edx
	movl	$1, %ecx
	call	_Z41__static_initialization_and_destruction_0ii
	nop
	addq	$32, %rsp
	popq	%rbp
	.cfi_restore 6
	.cfi_def_cfa 7, 8
	ret
	.cfi_endproc
.LFE2999:
	.seh_endproc
	.section	.ctors,"w"
	.align 8
	.quad	_GLOBAL__sub_I__Z2b1j
	.text
.Letext0:
	.file 4 "C:/msys64/mingw64/include/c++/10.2.0/cwchar"
	.file 5 "C:/msys64/mingw64/include/c++/10.2.0/bits/exception_ptr.h"
	.file 6 "C:/msys64/mingw64/include/c++/10.2.0/x86_64-w64-mingw32/bits/c++config.h"
	.file 7 "C:/msys64/mingw64/include/c++/10.2.0/type_traits"
	.file 8 "C:/msys64/mingw64/include/c++/10.2.0/bits/cpp_type_traits.h"
	.file 9 "C:/msys64/mingw64/include/c++/10.2.0/bits/stl_pair.h"
	.file 10 "C:/msys64/mingw64/include/c++/10.2.0/debug/debug.h"
	.file 11 "C:/msys64/mingw64/include/c++/10.2.0/bits/char_traits.h"
	.file 12 "C:/msys64/mingw64/include/c++/10.2.0/cstdint"
	.file 13 "C:/msys64/mingw64/include/c++/10.2.0/clocale"
	.file 14 "C:/msys64/mingw64/include/c++/10.2.0/cstdlib"
	.file 15 "C:/msys64/mingw64/include/c++/10.2.0/cstdio"
	.file 16 "C:/msys64/mingw64/include/c++/10.2.0/bits/basic_string.h"
	.file 17 "C:/msys64/mingw64/include/c++/10.2.0/system_error"
	.file 18 "C:/msys64/mingw64/include/c++/10.2.0/bits/ios_base.h"
	.file 19 "C:/msys64/mingw64/include/c++/10.2.0/cwctype"
	.file 20 "C:/msys64/mingw64/include/c++/10.2.0/iosfwd"
	.file 21 "C:/msys64/mingw64/include/c++/10.2.0/ctime"
	.file 22 "C:/msys64/mingw64/include/c++/10.2.0/bits/uses_allocator.h"
	.file 23 "C:/msys64/mingw64/include/c++/10.2.0/tuple"
	.file 24 "C:/msys64/mingw64/include/c++/10.2.0/cmath"
	.file 25 "C:/msys64/mingw64/include/c++/10.2.0/bits/predefined_ops.h"
	.file 26 "C:/msys64/mingw64/x86_64-w64-mingw32/include/corecrt.h"
	.file 27 "C:/msys64/mingw64/x86_64-w64-mingw32/include/locale.h"
	.file 28 "C:/msys64/mingw64/x86_64-w64-mingw32/include/wchar.h"
	.file 29 "C:/msys64/mingw64/x86_64-w64-mingw32/include/swprintf.inl"
	.file 30 "C:/msys64/mingw64/x86_64-w64-mingw32/include/stdint.h"
	.file 31 "C:/msys64/mingw64/x86_64-w64-mingw32/include/stdio.h"
	.file 32 "C:/msys64/mingw64/include/c++/10.2.0/x86_64-w64-mingw32/bits/atomic_word.h"
	.file 33 "C:/msys64/mingw64/x86_64-w64-mingw32/include/stdlib.h"
	.file 34 "C:/msys64/mingw64/x86_64-w64-mingw32/include/process.h"
	.file 35 "C:/msys64/mingw64/x86_64-w64-mingw32/include/wctype.h"
	.file 36 "C:/msys64/mingw64/x86_64-w64-mingw32/include/time.h"
	.file 37 "C:/msys64/mingw64/x86_64-w64-mingw32/include/math.h"
	.file 38 "<built-in>"
	.section	.rdata$.refptr._ZSt4cout, "dr"
	.globl	.refptr._ZSt4cout
	.linkonce	discard
.refptr._ZSt4cout:
	.quad	_ZSt4cout
	.section	.rdata$.refptr._Z10writeArrayPji, "dr"
	.globl	.refptr._Z10writeArrayPji
	.linkonce	discard
.refptr._Z10writeArrayPji:
	.quad	_Z10writeArrayPji
	.section	.rdata$.refptr._Z9readArrayPji, "dr"
	.globl	.refptr._Z9readArrayPji
	.linkonce	discard
.refptr._Z9readArrayPji:
	.quad	_Z9readArrayPji
	.section	.rdata$.refptr._Z15readOneLocationPji, "dr"
	.globl	.refptr._Z15readOneLocationPji
	.linkonce	discard
.refptr._Z15readOneLocationPji:
	.quad	_Z15readOneLocationPji
	.section	.rdata$.refptr._Z2a2j, "dr"
	.globl	.refptr._Z2a2j
	.linkonce	discard
.refptr._Z2a2j:
	.quad	_Z2a2j
	.section	.rdata$.refptr._Z2a1j, "dr"
	.globl	.refptr._Z2a1j
	.linkonce	discard
.refptr._Z2a1j:
	.quad	_Z2a1j
